; Function Attrs: mustprogress nounwind uwtable
define internal noundef i64 @"_ZN5folly6detail8function13DispatchSmall4execIZN8proxygen11HTTPSession27onNativeProtocolUpgradeImplEmSt10unique_ptrINS4_9HTTPCodecESt14default_deleteIS7_EERKNSt7__cxx1112basic_stringIcSt11char_traitsIcESaIcEEEE3$_0EEmNS1_2OpEPNS1_4DataESM_"(i32 noundef %o, ptr nocapture noundef %src, ptr nocapture noundef writeonly %dst) #4 align 2 personality ptr @__gxx_personality_v0 {
entry:
  switch i32 %o, label %sw.epilog [
    i32 0, label %sw.bb1.thread
    i32 1, label %sw.bb1
  ]

sw.bb1.thread:                                    ; preds = %entry
  %0 = load i64, ptr %src, align 8
  store i64 %0, ptr %dst, align 8
  br label %"_ZZN8proxygen11HTTPSession27onNativeProtocolUpgradeImplEmSt10unique_ptrINS_9HTTPCodecESt14default_deleteIS2_EERKNSt7__cxx1112basic_stringIcSt11char_traitsIcESaIcEEEEN3$_0D2Ev.exit"

sw.bb1:                                           ; preds = %entry
  %.pr = load ptr, ptr %src, align 8
  %cmp.not.i.i = icmp eq ptr %.pr, null
  br i1 %cmp.not.i.i, label %"_ZZN8proxygen11HTTPSession27onNativeProtocolUpgradeImplEmSt10unique_ptrINS_9HTTPCodecESt14default_deleteIS2_EERKNSt7__cxx1112basic_stringIcSt11char_traitsIcESaIcEEEEN3$_0D2Ev.exit", label %_ZNKSt14default_deleteIN8proxygen9HTTPCodecEEclEPS1_.exit.i.i

_ZNKSt14default_deleteIN8proxygen9HTTPCodecEEclEPS1_.exit.i.i: ; preds = %sw.bb1
  %vtable.i.i.i = load ptr, ptr %.pr, align 8
  %vfn.i.i.i = getelementptr inbounds i8, ptr %vtable.i.i.i, i64 8
  %1 = load ptr, ptr %vfn.i.i.i, align 8
  tail call void %1(ptr noundef nonnull align 8 dereferenceable(8) %.pr) #39
  br label %"_ZZN8proxygen11HTTPSession27onNativeProtocolUpgradeImplEmSt10unique_ptrINS_9HTTPCodecESt14default_deleteIS2_EERKNSt7__cxx1112basic_stringIcSt11char_traitsIcESaIcEEEEN3$_0D2Ev.exit"

"_ZZN8proxygen11HTTPSession27onNativeProtocolUpgradeImplEmSt10unique_ptrINS_9HTTPCodecESt14default_deleteIS2_EERKNSt7__cxx1112basic_stringIcSt11char_traitsIcESaIcEEEEN3$_0D2Ev.exit": ; preds = %sw.bb1.thread, %sw.bb1, %_ZNKSt14default_deleteIN8proxygen9HTTPCodecEEclEPS1_.exit.i.i
  store ptr null, ptr %src, align 8
  br label %sw.epilog

sw.epilog:                                        ; preds = %"_ZZN8proxygen11HTTPSession27onNativeProtocolUpgradeImplEmSt10unique_ptrINS_9HTTPCodecESt14default_deleteIS2_EERKNSt7__cxx1112basic_stringIcSt11char_traitsIcESaIcEEEEN3$_0D2Ev.exit", %entry
  ret i64 0
}